target datalayout = "e-m:e-p270:32:32-p271:32:32-p272:64:64-i64:64-i128:128-f80:128-n8:16:32:64-S128"
target triple = "x86_64-pc-linux-gnu"

%struct.repository = type { ptr, ptr, ptr, ptr, ptr, %struct.strmap, %struct.strmap, %struct.repo_path_cache, ptr, ptr, ptr, ptr, %struct.repo_settings, ptr, ptr, ptr, ptr, ptr, ptr, i32, i32, i32, ptr, ptr, i32, i32, i8 }
%struct.strmap = type { %struct.hashmap, ptr, i8 }
%struct.hashmap = type { ptr, ptr, ptr, i32, i32, i32, i32, i8 }
%struct.repo_path_cache = type { ptr, ptr, ptr, ptr, ptr, ptr, ptr }
%struct.repo_settings = type { i32, i32, i32, i32, i32, i32, i32, i32, i32, i32, i32, i32, ptr, i32, i32, i32, i32, i32, i32, i32, i64, i64, i64 }
%struct.list_head = type { ptr, ptr }
%struct.packed_git = type { %struct.hashmap_entry, ptr, %struct.list_head, ptr, i64, ptr, i64, i32, i64, %struct.oidset, i32, i64, i32, i32, i8, [32 x i8], ptr, ptr, ptr, i64, ptr, i64, ptr, [0 x i8] }
%struct.hashmap_entry = type { ptr, i32 }
%struct.oidset = type { %struct.kh_oid_set }
%struct.kh_oid_set = type { i32, i32, i32, i32, ptr, ptr, ptr }

@the_repository = external global ptr, align 8
@.str.149 = private unnamed_addr constant [36 x i8] c"maintenance.incremental-repack.auto\00", align 1

; Function Attrs: inlinehint nounwind uwtable
define internal i32 @git_config_get_int(ptr noundef %0, ptr noundef %1) #6 {
  %3 = alloca ptr, align 8
  %4 = alloca ptr, align 8
  store ptr %0, ptr %3, align 8, !tbaa !11
  store ptr %1, ptr %4, align 8, !tbaa !104
  %5 = load ptr, ptr @the_repository, align 8, !tbaa !13
  %6 = load ptr, ptr %3, align 8, !tbaa !11
  %7 = load ptr, ptr %4, align 8, !tbaa !104
  %8 = call i32 @repo_config_get_int(ptr noundef %5, ptr noundef %6, ptr noundef %7)
  ret i32 %8
}

; Function Attrs: nounwind uwtable
define internal i32 @incremental_repack_auto_condition(ptr noundef %0) #0 {
  %2 = alloca i32, align 4
  %3 = alloca ptr, align 8
  %4 = alloca ptr, align 8
  %5 = alloca i32, align 4
  %6 = alloca i32, align 4
  %7 = alloca i32, align 4
  store ptr %0, ptr %3, align 8, !tbaa !90
  call void @llvm.lifetime.start.p0(i64 8, ptr %4) #11
  call void @llvm.lifetime.start.p0(i64 4, ptr %5) #11
  store i32 10, ptr %5, align 4, !tbaa !4
  call void @llvm.lifetime.start.p0(i64 4, ptr %6) #11
  store i32 0, ptr %6, align 4, !tbaa !4
  %8 = load ptr, ptr @the_repository, align 8, !tbaa !13
  call void @prepare_repo_settings(ptr noundef %8)
  %9 = load ptr, ptr @the_repository, align 8, !tbaa !13
  %10 = getelementptr inbounds nuw %struct.repository, ptr %9, i32 0, i32 12
  %11 = getelementptr inbounds nuw %struct.repo_settings, ptr %10, i32 0, i32 18
  %12 = load i32, ptr %11, align 4, !tbaa !165
  %13 = icmp ne i32 %12, 0
  br i1 %13, label %15, label %14

14:                                               ; preds = %1
  store i32 0, ptr %2, align 4
  store i32 1, ptr %7, align 4
  br label %57

15:                                               ; preds = %1
  %16 = call i32 @git_config_get_int(ptr noundef @.str.149, ptr noundef %5)
  %17 = load i32, ptr %5, align 4, !tbaa !4
  %18 = icmp ne i32 %17, 0
  br i1 %18, label %20, label %19

19:                                               ; preds = %15
  store i32 0, ptr %2, align 4
  store i32 1, ptr %7, align 4
  br label %57

20:                                               ; preds = %15
  %21 = load i32, ptr %5, align 4, !tbaa !4
  %22 = icmp slt i32 %21, 0
  br i1 %22, label %23, label %24

23:                                               ; preds = %20
  store i32 1, ptr %2, align 4
  store i32 1, ptr %7, align 4
  br label %57

24:                                               ; preds = %20
  %25 = load ptr, ptr @the_repository, align 8, !tbaa !13
  %26 = call ptr @get_packed_git(ptr noundef %25)
  store ptr %26, ptr %4, align 8, !tbaa !94
  br label %27

27:                                               ; preds = %48, %24
  %28 = load i32, ptr %6, align 4, !tbaa !4
  %29 = load i32, ptr %5, align 4, !tbaa !4
  %30 = icmp slt i32 %28, %29
  br i1 %30, label %31, label %34

31:                                               ; preds = %27
  %32 = load ptr, ptr %4, align 8, !tbaa !94
  %33 = icmp ne ptr %32, null
  br label %34

34:                                               ; preds = %31, %27
  %35 = phi i1 [ false, %27 ], [ %33, %31 ]
  br i1 %35, label %36, label %52

36:                                               ; preds = %34
  %37 = load ptr, ptr %4, align 8, !tbaa !94
  %38 = getelementptr inbounds nuw %struct.packed_git, ptr %37, i32 0, i32 14
  %39 = load i8, ptr %38, align 8
  %40 = lshr i8 %39, 6
  %41 = and i8 %40, 1
  %42 = zext i8 %41 to i32
  %43 = icmp ne i32 %42, 0
  br i1 %43, label %47, label %44

44:                                               ; preds = %36
  %45 = load i32, ptr %6, align 4, !tbaa !4
  %46 = add nsw i32 %45, 1
  store i32 %46, ptr %6, align 4, !tbaa !4
  br label %47

47:                                               ; preds = %44, %36
  br label %48

48:                                               ; preds = %47
  %49 = load ptr, ptr %4, align 8, !tbaa !94
  %50 = getelementptr inbounds nuw %struct.packed_git, ptr %49, i32 0, i32 1
  %51 = load ptr, ptr %50, align 8, !tbaa !94
  store ptr %51, ptr %4, align 8, !tbaa !94
  br label %27, !llvm.loop !166

52:                                               ; preds = %34
  %53 = load i32, ptr %6, align 4, !tbaa !4
  %54 = load i32, ptr %5, align 4, !tbaa !4
  %55 = icmp sge i32 %53, %54
  %56 = zext i1 %55 to i32
  store i32 %56, ptr %2, align 4
  store i32 1, ptr %7, align 4
  br label %57

57:                                               ; preds = %52, %23, %19, %14
  call void @llvm.lifetime.end.p0(i64 4, ptr %6) #11
  call void @llvm.lifetime.end.p0(i64 4, ptr %5) #11
  call void @llvm.lifetime.end.p0(i64 8, ptr %4) #11
  %58 = load i32, ptr %2, align 4
  ret i32 %58
}