; Function Attrs: nounwind uwtable
define internal range(i32 0, 2) i32 @incremental_repack_auto_condition(ptr readnone captures(none) %0) #0 {
  %2 = alloca i32, align 4
  call void @llvm.lifetime.start.p0(i64 4, ptr nonnull %2) #21
  store i32 10, ptr %2, align 4, !tbaa !4
  %3 = load ptr, ptr @the_repository, align 8, !tbaa !42
  tail call void @prepare_repo_settings(ptr noundef %3) #21
  %4 = load ptr, ptr @the_repository, align 8, !tbaa !42
  %5 = getelementptr inbounds nuw i8, ptr %4, i64 332
  %6 = load i32, ptr %5, align 4, !tbaa !148
  %.not = icmp eq i32 %6, 0
  br i1 %.not, label %30, label %7

7:                                                ; preds = %1
  %8 = call i32 @repo_config_get_int(ptr noundef nonnull %4, ptr noundef nonnull @.str.149, ptr noundef nonnull %2) #21
  %9 = load i32, ptr %2, align 4, !tbaa !4
  %.not9 = icmp eq i32 %9, 0
  br i1 %.not9, label %30, label %10

10:                                               ; preds = %7
  %11 = icmp slt i32 %9, 0
  br i1 %11, label %30, label %12

12:                                               ; preds = %10
  %13 = load ptr, ptr @the_repository, align 8, !tbaa !42
  %14 = call ptr @get_packed_git(ptr noundef %13) #21
  %15 = load i32, ptr %2, align 4, !tbaa !4
  %16 = icmp sgt i32 %15, 0
  %17 = icmp ne ptr %14, null
  %18 = select i1 %16, i1 %17, i1 false
  br i1 %18, label %.lr.ph, label %._crit_edge

.lr.ph:                                           ; preds = %12, %.lr.ph
  %.012 = phi i32 [ %spec.select, %.lr.ph ], [ 0, %12 ]
  %.0611 = phi ptr [ %24, %.lr.ph ], [ %14, %12 ]
  %19 = getelementptr inbounds nuw i8, ptr %.0611, i64 152
  %20 = load i8, ptr %19, align 8
  %21 = and i8 %20, 64
  %.not10 = icmp eq i8 %21, 0
  %22 = zext i1 %.not10 to i32
  %spec.select = add nuw nsw i32 %.012, %22
  %23 = getelementptr inbounds nuw i8, ptr %.0611, i64 16
  %24 = load ptr, ptr %23, align 8, !tbaa !45
  %25 = icmp slt i32 %spec.select, %15
  %26 = icmp ne ptr %24, null
  %27 = select i1 %25, i1 %26, i1 false
  br i1 %27, label %.lr.ph, label %._crit_edge, !llvm.loop !150

._crit_edge:                                      ; preds = %.lr.ph, %12
  %.0.lcssa = phi i32 [ 0, %12 ], [ %spec.select, %.lr.ph ]
  %28 = icmp sge i32 %.0.lcssa, %15
  %29 = zext i1 %28 to i32
  br label %30

30:                                               ; preds = %10, %7, %1, %._crit_edge
  %.07 = phi i32 [ %29, %._crit_edge ], [ 0, %1 ], [ 0, %7 ], [ 1, %10 ]
  call void @llvm.lifetime.end.p0(i64 4, ptr nonnull %2) #21
  ret i32 %.07
}